target datalayout = "e-m:e-p270:32:32-p271:32:32-p272:64:64-i64:64-i128:128-f80:128-n8:16:32:64-S128"
target triple = "x86_64-pc-linux-gnu"

%struct.client_request = type { i32, ptr, i8, i8, i32, ptr, ptr, i32, i32 }

@plugin_type = external constant [0 x i8], align 1
@.str.3 = private unnamed_addr constant [9 x i8] c"client.c\00", align 1
@.str.4 = private unnamed_addr constant [37 x i8] c"mpi/pmi2: no value for key %s in req\00", align 1
@.str.5 = private unnamed_addr constant [36 x i8] c"%s: %s: mpi/pmi2: client req key %s\00", align 1
@__func__.client_req_parse_body = private unnamed_addr constant [22 x i8] c"client_req_parse_body\00", align 1
@.str.6 = private unnamed_addr constant [58 x i8] c"mpi/pmi2: value not properly terminated in client request\00", align 1
@.str.7 = private unnamed_addr constant [36 x i8] c"%s: %s: mpi/pmi2: client req val %s\00", align 1

; Function Attrs: nounwind uwtable
define dso_local i32 @client_req_parse_body(ptr noundef %0) #0 {
  %2 = alloca ptr, align 8
  %3 = alloca i32, align 4
  %4 = alloca i32, align 4
  %5 = alloca ptr, align 8
  %6 = alloca ptr, align 8
  store ptr %0, ptr %2, align 8
  call void @llvm.lifetime.start.p0(i64 4, ptr %3) #7
  store i32 0, ptr %3, align 4
  call void @llvm.lifetime.start.p0(i64 4, ptr %4) #7
  store i32 0, ptr %4, align 4
  call void @llvm.lifetime.start.p0(i64 8, ptr %5) #7
  call void @llvm.lifetime.start.p0(i64 8, ptr %6) #7
  %7 = load ptr, ptr %2, align 8
  %8 = getelementptr inbounds nuw %struct.client_request, ptr %7, i32 0, i32 4
  %9 = load i32, ptr %8, align 4
  store i32 %9, ptr %3, align 4
  br label %10

10:                                               ; preds = %168, %1
  %11 = load i32, ptr %3, align 4
  %12 = load ptr, ptr %2, align 8
  %13 = getelementptr inbounds nuw %struct.client_request, ptr %12, i32 0, i32 0
  %14 = load i32, ptr %13, align 8
  %15 = icmp slt i32 %11, %14
  br i1 %15, label %16, label %194

16:                                               ; preds = %10
  %17 = load ptr, ptr %2, align 8
  %18 = getelementptr inbounds nuw %struct.client_request, ptr %17, i32 0, i32 1
  %19 = load ptr, ptr %18, align 8
  %20 = load i32, ptr %3, align 4
  %21 = sext i32 %20 to i64
  %22 = getelementptr inbounds i8, ptr %19, i64 %21
  store ptr %22, ptr %5, align 8
  br label %23

23:                                               ; preds = %41, %16
  %24 = load ptr, ptr %2, align 8
  %25 = getelementptr inbounds nuw %struct.client_request, ptr %24, i32 0, i32 1
  %26 = load ptr, ptr %25, align 8
  %27 = load i32, ptr %3, align 4
  %28 = sext i32 %27 to i64
  %29 = getelementptr inbounds i8, ptr %26, i64 %28
  %30 = load i8, ptr %29, align 1
  %31 = sext i8 %30 to i32
  %32 = icmp ne i32 %31, 61
  br i1 %32, label %33, label %39

33:                                               ; preds = %23
  %34 = load i32, ptr %3, align 4
  %35 = load ptr, ptr %2, align 8
  %36 = getelementptr inbounds nuw %struct.client_request, ptr %35, i32 0, i32 0
  %37 = load i32, ptr %36, align 8
  %38 = icmp slt i32 %34, %37
  br label %39

39:                                               ; preds = %33, %23
  %40 = phi i1 [ false, %23 ], [ %38, %33 ]
  br i1 %40, label %41, label %44

41:                                               ; preds = %39
  %42 = load i32, ptr %3, align 4
  %43 = add nsw i32 %42, 1
  store i32 %43, ptr %3, align 4
  br label %23, !llvm.loop !12

44:                                               ; preds = %39
  %45 = load i32, ptr %3, align 4
  %46 = load ptr, ptr %2, align 8
  %47 = getelementptr inbounds nuw %struct.client_request, ptr %46, i32 0, i32 0
  %48 = load i32, ptr %47, align 8
  %49 = icmp sge i32 %45, %48
  br i1 %49, label %50, label %53

50:                                               ; preds = %44
  %51 = load ptr, ptr %5, align 8
  %52 = call i32 (ptr, ...) @slurm_error(ptr noundef @.str.4, ptr noundef %51)
  store i32 -1, ptr %4, align 4
  br label %194

53:                                               ; preds = %44
  %54 = load ptr, ptr %2, align 8
  %55 = getelementptr inbounds nuw %struct.client_request, ptr %54, i32 0, i32 1
  %56 = load ptr, ptr %55, align 8
  %57 = load i32, ptr %3, align 4
  %58 = sext i32 %57 to i64
  %59 = getelementptr inbounds i8, ptr %56, i64 %58
  store i8 0, ptr %59, align 1
  %60 = load i32, ptr %3, align 4
  %61 = add nsw i32 %60, 1
  store i32 %61, ptr %3, align 4
  br label %62

62:                                               ; preds = %53
  br label %63

63:                                               ; preds = %62
  %64 = call i32 @slurm_get_log_level()
  %65 = icmp sge i32 %64, 7
  br i1 %65, label %66, label %68

66:                                               ; preds = %63
  %67 = load ptr, ptr %5, align 8
  call void (i32, ptr, ...) @slurm_log_var(i32 noundef 7, ptr noundef @.str.5, ptr noundef @plugin_type, ptr noundef @__func__.client_req_parse_body, ptr noundef %67)
  br label %68

68:                                               ; preds = %66, %63
  br label %69

69:                                               ; preds = %68
  br label %70

70:                                               ; preds = %69
  br label %71

71:                                               ; preds = %70
  br label %72

72:                                               ; preds = %71
  %73 = load ptr, ptr %2, align 8
  %74 = getelementptr inbounds nuw %struct.client_request, ptr %73, i32 0, i32 1
  %75 = load ptr, ptr %74, align 8
  %76 = load i32, ptr %3, align 4
  %77 = sext i32 %76 to i64
  %78 = getelementptr inbounds i8, ptr %75, i64 %77
  store ptr %78, ptr %6, align 8
  br label %79

79:                                               ; preds = %115, %72
  %80 = load ptr, ptr %2, align 8
  %81 = getelementptr inbounds nuw %struct.client_request, ptr %80, i32 0, i32 1
  %82 = load ptr, ptr %81, align 8
  %83 = load i32, ptr %3, align 4
  %84 = sext i32 %83 to i64
  %85 = getelementptr inbounds i8, ptr %82, i64 %84
  %86 = load i8, ptr %85, align 1
  %87 = sext i8 %86 to i32
  %88 = load ptr, ptr %2, align 8
  %89 = getelementptr inbounds nuw %struct.client_request, ptr %88, i32 0, i32 2
  %90 = load i8, ptr %89, align 8
  %91 = sext i8 %90 to i32
  %92 = icmp ne i32 %87, %91
  br i1 %92, label %93, label %113

93:                                               ; preds = %79
  %94 = load ptr, ptr %2, align 8
  %95 = getelementptr inbounds nuw %struct.client_request, ptr %94, i32 0, i32 1
  %96 = load ptr, ptr %95, align 8
  %97 = load i32, ptr %3, align 4
  %98 = sext i32 %97 to i64
  %99 = getelementptr inbounds i8, ptr %96, i64 %98
  %100 = load i8, ptr %99, align 1
  %101 = sext i8 %100 to i32
  %102 = load ptr, ptr %2, align 8
  %103 = getelementptr inbounds nuw %struct.client_request, ptr %102, i32 0, i32 3
  %104 = load i8, ptr %103, align 1
  %105 = sext i8 %104 to i32
  %106 = icmp ne i32 %101, %105
  br i1 %106, label %107, label %113

107:                                              ; preds = %93
  %108 = load i32, ptr %3, align 4
  %109 = load ptr, ptr %2, align 8
  %110 = getelementptr inbounds nuw %struct.client_request, ptr %109, i32 0, i32 0
  %111 = load i32, ptr %110, align 8
  %112 = icmp slt i32 %108, %111
  br label %113

113:                                              ; preds = %107, %93, %79
  %114 = phi i1 [ false, %93 ], [ false, %79 ], [ %112, %107 ]
  br i1 %114, label %115, label %118

115:                                              ; preds = %113
  %116 = load i32, ptr %3, align 4
  %117 = add nsw i32 %116, 1
  store i32 %117, ptr %3, align 4
  br label %79, !llvm.loop !13

118:                                              ; preds = %113
  %119 = load i32, ptr %3, align 4
  %120 = load ptr, ptr %2, align 8
  %121 = getelementptr inbounds nuw %struct.client_request, ptr %120, i32 0, i32 0
  %122 = load i32, ptr %121, align 8
  %123 = icmp sge i32 %119, %122
  br i1 %123, label %124, label %126

124:                                              ; preds = %118
  %125 = call i32 (ptr, ...) @slurm_error(ptr noundef @.str.6)
  store i32 -1, ptr %4, align 4
  br label %194

126:                                              ; preds = %118
  %127 = load ptr, ptr %2, align 8
  %128 = getelementptr inbounds nuw %struct.client_request, ptr %127, i32 0, i32 1
  %129 = load ptr, ptr %128, align 8
  %130 = load i32, ptr %3, align 4
  %131 = sext i32 %130 to i64
  %132 = getelementptr inbounds i8, ptr %129, i64 %131
  store i8 0, ptr %132, align 1
  %133 = load i32, ptr %3, align 4
  %134 = add nsw i32 %133, 1
  store i32 %134, ptr %3, align 4
  br label %135

135:                                              ; preds = %126
  br label %136

136:                                              ; preds = %135
  %137 = call i32 @slurm_get_log_level()
  %138 = icmp sge i32 %137, 7
  br i1 %138, label %139, label %141

139:                                              ; preds = %136
  %140 = load ptr, ptr %6, align 8
  call void (i32, ptr, ...) @slurm_log_var(i32 noundef 7, ptr noundef @.str.7, ptr noundef @plugin_type, ptr noundef @__func__.client_req_parse_body, ptr noundef %140)
  br label %141

141:                                              ; preds = %139, %136
  br label %142

142:                                              ; preds = %141
  br label %143

143:                                              ; preds = %142
  br label %144

144:                                              ; preds = %143
  br label %145

145:                                              ; preds = %144
  %146 = load ptr, ptr %2, align 8
  %147 = getelementptr inbounds nuw %struct.client_request, ptr %146, i32 0, i32 8
  %148 = load i32, ptr %147, align 4
  %149 = add i32 %148, 2
  %150 = mul i32 2, %149
  %151 = load ptr, ptr %2, align 8
  %152 = getelementptr inbounds nuw %struct.client_request, ptr %151, i32 0, i32 7
  %153 = load i32, ptr %152, align 8
  %154 = icmp ugt i32 %150, %153
  br i1 %154, label %155, label %168

155:                                              ; preds = %145
  %156 = load ptr, ptr %2, align 8
  %157 = getelementptr inbounds nuw %struct.client_request, ptr %156, i32 0, i32 7
  %158 = load i32, ptr %157, align 8
  %159 = add i32 %158, 32
  store i32 %159, ptr %157, align 8
  %160 = load ptr, ptr %2, align 8
  %161 = getelementptr inbounds nuw %struct.client_request, ptr %160, i32 0, i32 6
  %162 = load ptr, ptr %2, align 8
  %163 = getelementptr inbounds nuw %struct.client_request, ptr %162, i32 0, i32 7
  %164 = load i32, ptr %163, align 8
  %165 = zext i32 %164 to i64
  %166 = mul i64 %165, 8
  %167 = call ptr @slurm_xrecalloc(ptr noundef %161, i64 noundef 1, i64 noundef %166, i1 noundef zeroext true, i1 noundef zeroext false, ptr noundef @.str.3, i32 noundef 242, ptr noundef @__func__.client_req_parse_body)
  br label %168

168:                                              ; preds = %155, %145
  %169 = load ptr, ptr %5, align 8
  %170 = load ptr, ptr %2, align 8
  %171 = getelementptr inbounds nuw %struct.client_request, ptr %170, i32 0, i32 6
  %172 = load ptr, ptr %171, align 8
  %173 = load ptr, ptr %2, align 8
  %174 = getelementptr inbounds nuw %struct.client_request, ptr %173, i32 0, i32 8
  %175 = load i32, ptr %174, align 4
  %176 = mul i32 %175, 2
  %177 = zext i32 %176 to i64
  %178 = getelementptr inbounds nuw ptr, ptr %172, i64 %177
  store ptr %169, ptr %178, align 8
  %179 = load ptr, ptr %6, align 8
  %180 = load ptr, ptr %2, align 8
  %181 = getelementptr inbounds nuw %struct.client_request, ptr %180, i32 0, i32 6
  %182 = load ptr, ptr %181, align 8
  %183 = load ptr, ptr %2, align 8
  %184 = getelementptr inbounds nuw %struct.client_request, ptr %183, i32 0, i32 8
  %185 = load i32, ptr %184, align 4
  %186 = mul i32 %185, 2
  %187 = add i32 %186, 1
  %188 = zext i32 %187 to i64
  %189 = getelementptr inbounds nuw ptr, ptr %182, i64 %188
  store ptr %179, ptr %189, align 8
  %190 = load ptr, ptr %2, align 8
  %191 = getelementptr inbounds nuw %struct.client_request, ptr %190, i32 0, i32 8
  %192 = load i32, ptr %191, align 4
  %193 = add i32 %192, 1
  store i32 %193, ptr %191, align 4
  br label %10, !llvm.loop !14

194:                                              ; preds = %124, %50, %10
  %195 = load ptr, ptr %2, align 8
  %196 = getelementptr inbounds nuw %struct.client_request, ptr %195, i32 0, i32 6
  %197 = load ptr, ptr %196, align 8
  %198 = load ptr, ptr %2, align 8
  %199 = getelementptr inbounds nuw %struct.client_request, ptr %198, i32 0, i32 8
  %200 = load i32, ptr %199, align 4
  %201 = mul i32 %200, 2
  %202 = zext i32 %201 to i64
  %203 = getelementptr inbounds nuw ptr, ptr %197, i64 %202
  store ptr null, ptr %203, align 8
  %204 = load ptr, ptr %2, align 8
  %205 = getelementptr inbounds nuw %struct.client_request, ptr %204, i32 0, i32 6
  %206 = load ptr, ptr %205, align 8
  %207 = load ptr, ptr %2, align 8
  %208 = getelementptr inbounds nuw %struct.client_request, ptr %207, i32 0, i32 8
  %209 = load i32, ptr %208, align 4
  %210 = mul i32 %209, 2
  %211 = add i32 %210, 1
  %212 = zext i32 %211 to i64
  %213 = getelementptr inbounds nuw ptr, ptr %206, i64 %212
  store ptr null, ptr %213, align 8
  %214 = load i32, ptr %4, align 4
  call void @llvm.lifetime.end.p0(i64 8, ptr %6) #7
  call void @llvm.lifetime.end.p0(i64 8, ptr %5) #7
  call void @llvm.lifetime.end.p0(i64 4, ptr %4) #7
  call void @llvm.lifetime.end.p0(i64 4, ptr %3) #7
  ret i32 %214
}