; Function Attrs: nounwind uwtable
define dso_local range(i32 -1, 1) i32 @client_req_parse_body(ptr noundef %0) local_unnamed_addr #2 {
  %2 = getelementptr inbounds nuw i8, ptr %0, i64 20
  %3 = load i32, ptr %2, align 4
  %4 = load i32, ptr %0, align 8
  %5 = icmp slt i32 %3, %4
  br i1 %5, label %.lr.ph73, label %.loopexit

.lr.ph73:                                         ; preds = %1
  %6 = getelementptr inbounds nuw i8, ptr %0, i64 8
  %7 = getelementptr inbounds nuw i8, ptr %0, i64 17
  %8 = getelementptr inbounds nuw i8, ptr %0, i64 16
  %9 = getelementptr inbounds nuw i8, ptr %0, i64 44
  %10 = getelementptr inbounds nuw i8, ptr %0, i64 40
  %11 = getelementptr inbounds nuw i8, ptr %0, i64 32
  br label %12

12:                                               ; preds = %.lr.ph73, %71
  %13 = phi i32 [ %4, %.lr.ph73 ], [ %83, %71 ]
  %.072 = phi i32 [ %3, %.lr.ph73 ], [ %56, %71 ]
  %14 = load ptr, ptr %6, align 8
  %15 = sext i32 %.072 to i64
  %16 = sext i32 %13 to i64
  br label %17

17:                                               ; preds = %17, %12
  %indvars.iv79.in = phi i32 [ %indvars.iv79, %17 ], [ %.072, %12 ]
  %indvars.iv = phi i64 [ %indvars.iv.next, %17 ], [ %15, %12 ]
  %indvars.iv79 = add i32 %indvars.iv79.in, 1
  %18 = getelementptr inbounds i8, ptr %14, i64 %indvars.iv
  %19 = load i8, ptr %18, align 1
  %.not = icmp ne i8 %19, 61
  %20 = icmp slt i64 %indvars.iv, %16
  %or.cond = and i1 %20, %.not
  %indvars.iv.next = add nsw i64 %indvars.iv, 1
  br i1 %or.cond, label %17, label %.critedge, !llvm.loop !12

.critedge:                                        ; preds = %17
  %21 = getelementptr inbounds i8, ptr %14, i64 %15
  %22 = trunc nsw i64 %indvars.iv to i32
  %.not55 = icmp sgt i32 %13, %22
  br i1 %.not55, label %25, label %23

23:                                               ; preds = %.critedge
  %24 = tail call i32 (ptr, ...) @slurm_error(ptr noundef nonnull @.str.4, ptr noundef %21) #11
  br label %.loopexit

25:                                               ; preds = %.critedge
  %26 = getelementptr inbounds i8, ptr %14, i64 %indvars.iv
  store i8 0, ptr %26, align 1
  %27 = add nsw i32 %22, 1
  %28 = tail call i32 @slurm_get_log_level() #11
  %29 = icmp sgt i32 %28, 6
  br i1 %29, label %30, label %31

30:                                               ; preds = %25
  tail call void (i32, ptr, ...) @slurm_log_var(i32 noundef 7, ptr noundef nonnull @.str.5, ptr noundef nonnull @plugin_type, ptr noundef nonnull @__func__.client_req_parse_body, ptr noundef nonnull %21) #11
  br label %31

31:                                               ; preds = %30, %25
  %32 = load ptr, ptr %6, align 8
  %33 = sext i32 %27 to i64
  %34 = getelementptr inbounds i8, ptr %32, i64 %33
  %35 = load i8, ptr %8, align 8
  %36 = load i8, ptr %34, align 1
  %.not5663 = icmp eq i8 %36, %35
  br i1 %.not5663, label %.critedge2, label %.lr.ph

.lr.ph:                                           ; preds = %31
  %37 = load i8, ptr %7, align 1
  %38 = sext i32 %indvars.iv79 to i64
  br label %39

39:                                               ; preds = %.lr.ph, %45
  %indvars.iv81 = phi i64 [ %38, %.lr.ph ], [ %indvars.iv.next82, %45 ]
  %40 = phi i8 [ %36, %.lr.ph ], [ %48, %45 ]
  %.264 = phi i32 [ %27, %.lr.ph ], [ %46, %45 ]
  %.not57 = icmp eq i8 %40, %37
  br i1 %.not57, label %.critedge2.loopexit.split.loop.exit, label %41

41:                                               ; preds = %39
  %42 = load i32, ptr %0, align 8
  %43 = sext i32 %42 to i64
  %44 = icmp slt i64 %indvars.iv81, %43
  br i1 %44, label %45, label %.critedge2.loopexit.split.loop.exit92

45:                                               ; preds = %41
  %indvars.iv.next82 = add nsw i64 %indvars.iv81, 1
  %46 = add nsw i32 %.264, 1
  %47 = getelementptr inbounds i8, ptr %32, i64 %indvars.iv.next82
  %48 = load i8, ptr %47, align 1
  %.not56 = icmp eq i8 %48, %35
  br i1 %.not56, label %.critedge2, label %39, !llvm.loop !13

.critedge2.loopexit.split.loop.exit:              ; preds = %39
  %49 = trunc nsw i64 %indvars.iv81 to i32
  br label %.critedge2

.critedge2.loopexit.split.loop.exit92:            ; preds = %41
  %50 = trunc nsw i64 %indvars.iv81 to i32
  br label %.critedge2

.critedge2:                                       ; preds = %45, %.critedge2.loopexit.split.loop.exit, %.critedge2.loopexit.split.loop.exit92, %31
  %.lcssa = phi i64 [ %33, %31 ], [ %indvars.iv81, %.critedge2.loopexit.split.loop.exit ], [ %indvars.iv81, %.critedge2.loopexit.split.loop.exit92 ], [ %indvars.iv.next82, %45 ]
  %.2.lcssa = phi i32 [ %27, %31 ], [ %49, %.critedge2.loopexit.split.loop.exit ], [ %50, %.critedge2.loopexit.split.loop.exit92 ], [ %46, %45 ]
  %51 = load i32, ptr %0, align 8
  %.not58 = icmp slt i32 %.2.lcssa, %51
  br i1 %.not58, label %54, label %52

52:                                               ; preds = %.critedge2
  %53 = tail call i32 (ptr, ...) @slurm_error(ptr noundef nonnull @.str.6) #11
  br label %.loopexit

54:                                               ; preds = %.critedge2
  %55 = getelementptr inbounds i8, ptr %32, i64 %.lcssa
  store i8 0, ptr %55, align 1
  %56 = add nsw i32 %.2.lcssa, 1
  %57 = tail call i32 @slurm_get_log_level() #11
  %58 = icmp sgt i32 %57, 6
  br i1 %58, label %59, label %60

59:                                               ; preds = %54
  tail call void (i32, ptr, ...) @slurm_log_var(i32 noundef 7, ptr noundef nonnull @.str.7, ptr noundef nonnull @plugin_type, ptr noundef nonnull @__func__.client_req_parse_body, ptr noundef nonnull %34) #11
  br label %60

60:                                               ; preds = %59, %54
  %61 = load i32, ptr %9, align 4
  %62 = shl i32 %61, 1
  %63 = add i32 %62, 4
  %64 = load i32, ptr %10, align 8
  %65 = icmp ugt i32 %63, %64
  br i1 %65, label %66, label %71

66:                                               ; preds = %60
  %67 = add i32 %64, 32
  store i32 %67, ptr %10, align 8
  %68 = zext i32 %67 to i64
  %69 = shl nuw nsw i64 %68, 3
  %70 = tail call ptr @slurm_xrecalloc(ptr noundef nonnull %11, i64 noundef 1, i64 noundef %69, i1 noundef zeroext true, i1 noundef zeroext false, ptr noundef nonnull @.str.3, i32 noundef 242, ptr noundef nonnull @__func__.client_req_parse_body) #11
  %.pre = load i32, ptr %9, align 4
  %.pre83 = shl i32 %.pre, 1
  br label %71

71:                                               ; preds = %66, %60
  %.pre-phi = phi i32 [ %.pre83, %66 ], [ %62, %60 ]
  %72 = load ptr, ptr %11, align 8
  %73 = zext i32 %.pre-phi to i64
  %74 = getelementptr inbounds nuw ptr, ptr %72, i64 %73
  store ptr %21, ptr %74, align 8
  %75 = load ptr, ptr %11, align 8
  %76 = load i32, ptr %9, align 4
  %77 = shl i32 %76, 1
  %78 = or disjoint i32 %77, 1
  %79 = zext i32 %78 to i64
  %80 = getelementptr inbounds nuw ptr, ptr %75, i64 %79
  store ptr %34, ptr %80, align 8
  %81 = load i32, ptr %9, align 4
  %82 = add i32 %81, 1
  store i32 %82, ptr %9, align 4
  %83 = load i32, ptr %0, align 8
  %84 = icmp slt i32 %56, %83
  br i1 %84, label %12, label %.loopexit, !llvm.loop !14

.loopexit:                                        ; preds = %71, %1, %52, %23
  %.052 = phi i32 [ -1, %23 ], [ -1, %52 ], [ 0, %1 ], [ 0, %71 ]
  %85 = getelementptr inbounds nuw i8, ptr %0, i64 32
  %86 = load ptr, ptr %85, align 8
  %87 = getelementptr inbounds nuw i8, ptr %0, i64 44
  %88 = load i32, ptr %87, align 4
  %89 = shl i32 %88, 1
  %90 = zext i32 %89 to i64
  %91 = getelementptr inbounds nuw ptr, ptr %86, i64 %90
  store ptr null, ptr %91, align 8
  %92 = load ptr, ptr %85, align 8
  %93 = load i32, ptr %87, align 4
  %94 = shl i32 %93, 1
  %95 = or disjoint i32 %94, 1
  %96 = zext i32 %95 to i64
  %97 = getelementptr inbounds nuw ptr, ptr %92, i64 %96
  store ptr null, ptr %97, align 8
  ret i32 %.052
}